; Function Attrs: nofree norecurse nosync nounwind memory(argmem: read) uwtable
define range(i32 -213, 1) i32 @wc_ChaCha20Poly1305_CheckTag(ptr noundef readonly captures(address_is_null) %0, ptr noundef readonly captures(address_is_null) %1) local_unnamed_addr #3 {
  %3 = icmp eq ptr %0, null
  %4 = icmp eq ptr %1, null
  %or.cond = or i1 %3, %4
  br i1 %or.cond, label %12, label %.preheader

.preheader:                                       ; preds = %2, %.preheader
  %indvars.iv.i = phi i64 [ %indvars.iv.next.i, %.preheader ], [ 0, %2 ]
  %.010.i = phi i32 [ %11, %.preheader ], [ 0, %2 ]
  %5 = getelementptr inbounds nuw i8, ptr %0, i64 %indvars.iv.i
  %6 = load i8, ptr %5, align 1, !tbaa !13
  %7 = getelementptr inbounds nuw i8, ptr %1, i64 %indvars.iv.i
  %8 = load i8, ptr %7, align 1, !tbaa !13
  %9 = xor i8 %8, %6
  %10 = zext i8 %9 to i32
  %11 = or i32 %.010.i, %10
  %indvars.iv.next.i = add nuw nsw i64 %indvars.iv.i, 1
  %exitcond.not.i = icmp eq i64 %indvars.iv.next.i, 16
  br i1 %exitcond.not.i, label %ConstantCompare.exit, label %.preheader, !llvm.loop !19

ConstantCompare.exit:                             ; preds = %.preheader
  %.not = icmp eq i32 %11, 0
  %spec.select = select i1 %.not, i32 0, i32 -213
  br label %12

12:                                               ; preds = %2, %ConstantCompare.exit
  %.06 = phi i32 [ %spec.select, %ConstantCompare.exit ], [ -173, %2 ]
  ret i32 %.06
}